target datalayout = "e-m:e-p270:32:32-p271:32:32-p272:64:64-i64:64-i128:128-f80:128-n8:16:32:64-S128"
target triple = "x86_64-pc-linux-gnu"

%struct.bn_mont_ctx_st = type { %struct.bignum_st, %struct.bignum_st, [2 x i64] }
%struct.bignum_st = type { ptr, i32, i32, i32, i32 }

; Function Attrs: nounwind uwtable
define hidden ptr @BN_MONT_CTX_copy(ptr noundef %0, ptr noundef %1) #0 {
  %3 = alloca ptr, align 8
  %4 = alloca ptr, align 8
  %5 = alloca ptr, align 8
  store ptr %0, ptr %4, align 8, !tbaa !6
  store ptr %1, ptr %5, align 8, !tbaa !6
  %6 = load ptr, ptr %4, align 8, !tbaa !6
  %7 = load ptr, ptr %5, align 8, !tbaa !6
  %8 = icmp eq ptr %6, %7
  br i1 %8, label %9, label %11

9:                                                ; preds = %2
  %10 = load ptr, ptr %4, align 8, !tbaa !6
  store ptr %10, ptr %3, align 8
  br label %42

11:                                               ; preds = %2
  %12 = load ptr, ptr %4, align 8, !tbaa !6
  %13 = getelementptr inbounds nuw %struct.bn_mont_ctx_st, ptr %12, i32 0, i32 0
  %14 = load ptr, ptr %5, align 8, !tbaa !6
  %15 = getelementptr inbounds nuw %struct.bn_mont_ctx_st, ptr %14, i32 0, i32 0
  %16 = call ptr @BN_copy(ptr noundef %13, ptr noundef %15)
  %17 = icmp ne ptr %16, null
  br i1 %17, label %18, label %25

18:                                               ; preds = %11
  %19 = load ptr, ptr %4, align 8, !tbaa !6
  %20 = getelementptr inbounds nuw %struct.bn_mont_ctx_st, ptr %19, i32 0, i32 1
  %21 = load ptr, ptr %5, align 8, !tbaa !6
  %22 = getelementptr inbounds nuw %struct.bn_mont_ctx_st, ptr %21, i32 0, i32 1
  %23 = call ptr @BN_copy(ptr noundef %20, ptr noundef %22)
  %24 = icmp ne ptr %23, null
  br i1 %24, label %26, label %25

25:                                               ; preds = %18, %11
  store ptr null, ptr %3, align 8
  br label %42

26:                                               ; preds = %18
  %27 = load ptr, ptr %5, align 8, !tbaa !6
  %28 = getelementptr inbounds nuw %struct.bn_mont_ctx_st, ptr %27, i32 0, i32 2
  %29 = getelementptr inbounds [2 x i64], ptr %28, i64 0, i64 0
  %30 = load i64, ptr %29, align 8, !tbaa !11
  %31 = load ptr, ptr %4, align 8, !tbaa !6
  %32 = getelementptr inbounds nuw %struct.bn_mont_ctx_st, ptr %31, i32 0, i32 2
  %33 = getelementptr inbounds [2 x i64], ptr %32, i64 0, i64 0
  store i64 %30, ptr %33, align 8, !tbaa !11
  %34 = load ptr, ptr %5, align 8, !tbaa !6
  %35 = getelementptr inbounds nuw %struct.bn_mont_ctx_st, ptr %34, i32 0, i32 2
  %36 = getelementptr inbounds [2 x i64], ptr %35, i64 0, i64 1
  %37 = load i64, ptr %36, align 8, !tbaa !11
  %38 = load ptr, ptr %4, align 8, !tbaa !6
  %39 = getelementptr inbounds nuw %struct.bn_mont_ctx_st, ptr %38, i32 0, i32 2
  %40 = getelementptr inbounds [2 x i64], ptr %39, i64 0, i64 1
  store i64 %37, ptr %40, align 8, !tbaa !11
  %41 = load ptr, ptr %4, align 8, !tbaa !6
  store ptr %41, ptr %3, align 8
  br label %42

42:                                               ; preds = %26, %25, %9
  %43 = load ptr, ptr %3, align 8
  ret ptr %43
}