; Function Attrs: nounwind uwtable
define hidden noundef ptr @BN_MONT_CTX_copy(ptr noundef %0, ptr noundef %1) local_unnamed_addr #0 {
  %3 = icmp eq ptr %0, %1
  br i1 %3, label %17, label %4

4:                                                ; preds = %2
  %5 = tail call ptr @BN_copy(ptr noundef %0, ptr noundef %1) #6
  %.not = icmp eq ptr %5, null
  br i1 %.not, label %17, label %6

6:                                                ; preds = %4
  %7 = getelementptr inbounds nuw i8, ptr %0, i64 24
  %8 = getelementptr inbounds nuw i8, ptr %1, i64 24
  %9 = tail call ptr @BN_copy(ptr noundef nonnull %7, ptr noundef nonnull %8) #6
  %.not15 = icmp eq ptr %9, null
  br i1 %.not15, label %17, label %10

10:                                               ; preds = %6
  %11 = getelementptr inbounds nuw i8, ptr %1, i64 48
  %12 = load i64, ptr %11, align 8, !tbaa !6
  %13 = getelementptr inbounds nuw i8, ptr %0, i64 48
  store i64 %12, ptr %13, align 8, !tbaa !6
  %14 = getelementptr inbounds nuw i8, ptr %1, i64 56
  %15 = load i64, ptr %14, align 8, !tbaa !6
  %16 = getelementptr inbounds nuw i8, ptr %0, i64 56
  store i64 %15, ptr %16, align 8, !tbaa !6
  br label %17

17:                                               ; preds = %4, %6, %2, %10
  %.0 = phi ptr [ %0, %10 ], [ %0, %2 ], [ null, %6 ], [ null, %4 ]
  ret ptr %.0
}